target datalayout = "e-m:e-p270:32:32-p271:32:32-p272:64:64-i64:64-i128:128-f80:128-n8:16:32:64-S128"
target triple = "x86_64-pc-linux-gnu"

%"class.__gnu_cxx::__normal_iterator" = type { ptr }
%"struct.Luau::HotComment" = type { i8, %"struct.Luau::Location", %"class.std::__cxx11::basic_string" }
%"struct.Luau::Location" = type { %"struct.Luau::Position", %"struct.Luau::Position" }
%"struct.Luau::Position" = type { i32, i32 }
%"class.std::__cxx11::basic_string" = type { %"struct.std::__cxx11::basic_string<char>::_Alloc_hider", i64, %union.anon }
%"struct.std::__cxx11::basic_string<char>::_Alloc_hider" = type { ptr }
%union.anon = type { i64, [8 x i8] }
%"struct.std::_Vector_base" = type { %"struct.std::_Vector_base<Luau::HotComment, std::allocator<Luau::HotComment>>::_Vector_impl" }
%"struct.std::_Vector_base<Luau::HotComment, std::allocator<Luau::HotComment>>::_Vector_impl" = type { %"struct.std::_Vector_base<Luau::HotComment, std::allocator<Luau::HotComment>>::_Vector_impl_data" }
%"struct.std::_Vector_base<Luau::HotComment, std::allocator<Luau::HotComment>>::_Vector_impl_data" = type { ptr, ptr, ptr }

@.str = private unnamed_addr constant [7 x i8] c"nolint\00", align 1
@.str.56 = private unnamed_addr constant [3 x i8] c" \09\00", align 1

; Function Attrs: mustprogress nounwind uwtable
define dso_local noundef ptr @_ZN4Luau11LintWarning7getNameENS0_4CodeE(i32 noundef %0) #2 align 2 {
  %2 = alloca i32, align 4
  store i32 %0, ptr %2, align 4, !tbaa !14
  %3 = load i32, ptr %2, align 4, !tbaa !14
  %4 = zext i32 %3 to i64
  %5 = getelementptr inbounds nuw [30 x ptr], ptr @_ZN4LuauL13kWarningNamesE, i64 0, i64 %4
  %6 = load ptr, ptr %5, align 8, !tbaa !16
  ret ptr %6
}

; Function Attrs: mustprogress nounwind uwtable
define available_externally noundef ptr @_ZNKSt7__cxx1112basic_stringIcSt11char_traitsIcESaIcEE7_M_dataEv(ptr noundef nonnull align 8 dereferenceable(32) %0) #2 align 2 {
  %2 = alloca ptr, align 8
  store ptr %0, ptr %2, align 8, !tbaa !38
  %3 = load ptr, ptr %2, align 8
  %4 = getelementptr inbounds nuw %"class.std::__cxx11::basic_string", ptr %3, i32 0, i32 0
  %5 = getelementptr inbounds nuw %"struct.std::__cxx11::basic_string<char>::_Alloc_hider", ptr %4, i32 0, i32 0
  %6 = load ptr, ptr %5, align 8, !tbaa !40
  ret ptr %6
}

; Function Attrs: noinline noreturn nounwind uwtable
define linkonce_odr hidden void @__clang_call_terminate(ptr noundef %0) #7 comdat {
  %2 = call ptr @__cxa_begin_catch(ptr %0) #9
  call void @_ZSt9terminatev() #11
  unreachable
}

; Function Attrs: mustprogress nounwind uwtable
define linkonce_odr dso_local noundef i64 @_ZNSt11char_traitsIcE6lengthEPKc(ptr noundef %0) #2 comdat align 2 {
  %2 = alloca ptr, align 8
  store ptr %0, ptr %2, align 8, !tbaa !16
  %3 = load ptr, ptr %2, align 8, !tbaa !16
  %4 = call i64 @strlen(ptr noundef %3) #9
  ret i64 %4
}

; Function Attrs: mustprogress nounwind uwtable
define linkonce_odr dso_local noundef nonnull align 8 dereferenceable(8) ptr @_ZNK9__gnu_cxx17__normal_iteratorIPKN4Luau10HotCommentESt6vectorIS2_SaIS2_EEE4baseEv(ptr noundef nonnull align 8 dereferenceable(8) %0) #2 comdat align 2 {
  %2 = alloca ptr, align 8
  store ptr %0, ptr %2, align 8, !tbaa !34
  %3 = load ptr, ptr %2, align 8
  %4 = getelementptr inbounds nuw %"class.__gnu_cxx::__normal_iterator", ptr %3, i32 0, i32 0
  ret ptr %4
}

; Function Attrs: mustprogress nounwind uwtable
define linkonce_odr dso_local void @_ZN9__gnu_cxx17__normal_iteratorIPKN4Luau10HotCommentESt6vectorIS2_SaIS2_EEEC2ERKS4_(ptr noundef nonnull align 8 dereferenceable(8) %0, ptr noundef nonnull align 8 dereferenceable(8) %1) unnamed_addr #2 comdat align 2 {
  %3 = alloca ptr, align 8
  %4 = alloca ptr, align 8
  store ptr %0, ptr %3, align 8, !tbaa !34
  store ptr %1, ptr %4, align 8, !tbaa !41
  %5 = load ptr, ptr %3, align 8
  %6 = getelementptr inbounds nuw %"class.__gnu_cxx::__normal_iterator", ptr %5, i32 0, i32 0
  %7 = load ptr, ptr %4, align 8, !tbaa !41
  %8 = load ptr, ptr %7, align 8, !tbaa !23
  store ptr %8, ptr %6, align 8, !tbaa !36
  ret void
}

; Function Attrs: mustprogress nounwind uwtable
define linkonce_odr dso_local noundef nonnull align 8 dereferenceable(8) ptr @_ZN9__gnu_cxx17__normal_iteratorIPKN4Luau10HotCommentESt6vectorIS2_SaIS2_EEEppEv(ptr noundef nonnull align 8 dereferenceable(8) %0) #2 comdat align 2 {
  %2 = alloca ptr, align 8
  store ptr %0, ptr %2, align 8, !tbaa !34
  %3 = load ptr, ptr %2, align 8
  %4 = getelementptr inbounds nuw %"class.__gnu_cxx::__normal_iterator", ptr %3, i32 0, i32 0
  %5 = load ptr, ptr %4, align 8, !tbaa !36
  %6 = getelementptr inbounds nuw %"struct.Luau::HotComment", ptr %5, i32 1
  store ptr %6, ptr %4, align 8, !tbaa !36
  ret ptr %3
}

; Function Attrs: mustprogress nounwind uwtable
define dso_local noundef i32 @_ZN4Luau11LintWarning9parseNameEPKc(ptr noundef %0) #2 align 2 {
  %2 = alloca i32, align 4
  %3 = alloca ptr, align 8
  %4 = alloca i32, align 4
  %5 = alloca i32, align 4
  store ptr %0, ptr %3, align 8, !tbaa !16
  call void @llvm.lifetime.start.p0(i64 4, ptr %4) #9
  store i32 0, ptr %4, align 4, !tbaa !4
  br label %6

6:                                                ; preds = %19, %1
  %7 = load i32, ptr %4, align 4, !tbaa !4
  %8 = icmp slt i32 %7, 30
  br i1 %8, label %10, label %9

9:                                                ; preds = %6
  store i32 2, ptr %5, align 4
  br label %22

10:                                               ; preds = %6
  %11 = load ptr, ptr %3, align 8, !tbaa !16
  %12 = load i32, ptr %4, align 4, !tbaa !4
  %13 = call noundef ptr @_ZN4Luau11LintWarning7getNameENS0_4CodeE(i32 noundef %12)
  %14 = call i32 @strcmp(ptr noundef %11, ptr noundef %13) #10
  %15 = icmp eq i32 %14, 0
  br i1 %15, label %16, label %18

16:                                               ; preds = %10
  %17 = load i32, ptr %4, align 4, !tbaa !4
  store i32 %17, ptr %2, align 4
  store i32 1, ptr %5, align 4
  br label %22

18:                                               ; preds = %10
  br label %19

19:                                               ; preds = %18
  %20 = load i32, ptr %4, align 4, !tbaa !4
  %21 = add nsw i32 %20, 1
  store i32 %21, ptr %4, align 4, !tbaa !4
  br label %6, !llvm.loop !18

22:                                               ; preds = %16, %9
  call void @llvm.lifetime.end.p0(i64 4, ptr %4) #9
  %23 = load i32, ptr %5, align 4
  switch i32 %23, label %27 [
    i32 2, label %24
    i32 1, label %25
  ]

24:                                               ; preds = %22
  store i32 0, ptr %2, align 4
  br label %25

25:                                               ; preds = %24, %22
  %26 = load i32, ptr %2, align 4
  ret i32 %26

27:                                               ; preds = %22
  unreachable
}

; Function Attrs: mustprogress nounwind uwtable
define available_externally noundef ptr @_ZNKSt7__cxx1112basic_stringIcSt11char_traitsIcESaIcEE5c_strEv(ptr noundef nonnull align 8 dereferenceable(32) %0) #2 align 2 personality ptr @__gxx_personality_v0 {
  %2 = alloca ptr, align 8
  store ptr %0, ptr %2, align 8, !tbaa !38
  %3 = load ptr, ptr %2, align 8
  %4 = invoke noundef ptr @_ZNKSt7__cxx1112basic_stringIcSt11char_traitsIcESaIcEE7_M_dataEv(ptr noundef nonnull align 8 dereferenceable(32) %3)
          to label %5 unwind label %6

5:                                                ; preds = %1
  ret ptr %4

6:                                                ; preds = %1
  %7 = landingpad { ptr, i32 }
          catch ptr null
  %8 = extractvalue { ptr, i32 } %7, 0
  call void @__clang_call_terminate(ptr %8) #11
  unreachable
}

; Function Attrs: mustprogress nounwind uwtable
define available_externally noundef i64 @_ZNKSt7__cxx1112basic_stringIcSt11char_traitsIcESaIcEE17find_first_not_ofEPKcm(ptr noundef nonnull align 8 dereferenceable(32) %0, ptr noundef %1, i64 noundef %2) #2 align 2 personality ptr @__gxx_personality_v0 {
  %4 = alloca ptr, align 8
  %5 = alloca ptr, align 8
  %6 = alloca i64, align 8
  store ptr %0, ptr %4, align 8, !tbaa !38
  store ptr %1, ptr %5, align 8, !tbaa !16
  store i64 %2, ptr %6, align 8, !tbaa !22
  %7 = load ptr, ptr %4, align 8
  %8 = load ptr, ptr %5, align 8, !tbaa !16
  %9 = load i64, ptr %6, align 8, !tbaa !22
  %10 = load ptr, ptr %5, align 8, !tbaa !16
  %11 = invoke noundef i64 @_ZNSt11char_traitsIcE6lengthEPKc(ptr noundef %10)
          to label %12 unwind label %14

12:                                               ; preds = %3
  %13 = call noundef i64 @_ZNKSt7__cxx1112basic_stringIcSt11char_traitsIcESaIcEE17find_first_not_ofEPKcmm(ptr noundef nonnull align 8 dereferenceable(32) %7, ptr noundef %8, i64 noundef %9, i64 noundef %11) #9
  ret i64 %13

14:                                               ; preds = %3
  %15 = landingpad { ptr, i32 }
          catch ptr null
  %16 = extractvalue { ptr, i32 } %15, 0
  call void @__clang_call_terminate(ptr %16) #11
  unreachable
}

; Function Attrs: mustprogress nounwind uwtable
define linkonce_odr dso_local noundef nonnull align 8 dereferenceable(56) ptr @_ZNK9__gnu_cxx17__normal_iteratorIPKN4Luau10HotCommentESt6vectorIS2_SaIS2_EEEdeEv(ptr noundef nonnull align 8 dereferenceable(8) %0) #2 comdat align 2 {
  %2 = alloca ptr, align 8
  store ptr %0, ptr %2, align 8, !tbaa !34
  %3 = load ptr, ptr %2, align 8
  %4 = getelementptr inbounds nuw %"class.__gnu_cxx::__normal_iterator", ptr %3, i32 0, i32 0
  %5 = load ptr, ptr %4, align 8, !tbaa !36
  ret ptr %5
}

; Function Attrs: inlinehint mustprogress nounwind uwtable
define linkonce_odr dso_local noundef zeroext i1 @_ZN9__gnu_cxxneIPKN4Luau10HotCommentESt6vectorIS2_SaIS2_EEEEbRKNS_17__normal_iteratorIT_T0_EESD_(ptr noundef nonnull align 8 dereferenceable(8) %0, ptr noundef nonnull align 8 dereferenceable(8) %1) #5 comdat {
  %3 = alloca ptr, align 8
  %4 = alloca ptr, align 8
  store ptr %0, ptr %3, align 8, !tbaa !34
  store ptr %1, ptr %4, align 8, !tbaa !34
  %5 = load ptr, ptr %3, align 8, !tbaa !34
  %6 = call noundef nonnull align 8 dereferenceable(8) ptr @_ZNK9__gnu_cxx17__normal_iteratorIPKN4Luau10HotCommentESt6vectorIS2_SaIS2_EEE4baseEv(ptr noundef nonnull align 8 dereferenceable(8) %5) #9
  %7 = load ptr, ptr %6, align 8, !tbaa !23
  %8 = load ptr, ptr %4, align 8, !tbaa !34
  %9 = call noundef nonnull align 8 dereferenceable(8) ptr @_ZNK9__gnu_cxx17__normal_iteratorIPKN4Luau10HotCommentESt6vectorIS2_SaIS2_EEE4baseEv(ptr noundef nonnull align 8 dereferenceable(8) %8) #9
  %10 = load ptr, ptr %9, align 8, !tbaa !23
  %11 = icmp ne ptr %7, %10
  ret i1 %11
}

; Function Attrs: mustprogress nounwind uwtable
define linkonce_odr dso_local ptr @_ZNKSt6vectorIN4Luau10HotCommentESaIS1_EE3endEv(ptr noundef nonnull align 8 dereferenceable(24) %0) #2 comdat align 2 {
  %2 = alloca %"class.__gnu_cxx::__normal_iterator", align 8
  %3 = alloca ptr, align 8
  store ptr %0, ptr %3, align 8, !tbaa !20
  %4 = load ptr, ptr %3, align 8
  %5 = getelementptr inbounds nuw %"struct.std::_Vector_base", ptr %4, i32 0, i32 0
  %6 = getelementptr inbounds nuw %"struct.std::_Vector_base<Luau::HotComment, std::allocator<Luau::HotComment>>::_Vector_impl_data", ptr %5, i32 0, i32 1
  call void @_ZN9__gnu_cxx17__normal_iteratorIPKN4Luau10HotCommentESt6vectorIS2_SaIS2_EEEC2ERKS4_(ptr noundef nonnull align 8 dereferenceable(8) %2, ptr noundef nonnull align 8 dereferenceable(8) %6) #9
  %7 = getelementptr inbounds nuw %"class.__gnu_cxx::__normal_iterator", ptr %2, i32 0, i32 0
  %8 = load ptr, ptr %7, align 8
  ret ptr %8
}

; Function Attrs: mustprogress nounwind uwtable
define linkonce_odr dso_local ptr @_ZNKSt6vectorIN4Luau10HotCommentESaIS1_EE5beginEv(ptr noundef nonnull align 8 dereferenceable(24) %0) #2 comdat align 2 {
  %2 = alloca %"class.__gnu_cxx::__normal_iterator", align 8
  %3 = alloca ptr, align 8
  store ptr %0, ptr %3, align 8, !tbaa !20
  %4 = load ptr, ptr %3, align 8
  %5 = getelementptr inbounds nuw %"struct.std::_Vector_base", ptr %4, i32 0, i32 0
  %6 = getelementptr inbounds nuw %"struct.std::_Vector_base<Luau::HotComment, std::allocator<Luau::HotComment>>::_Vector_impl_data", ptr %5, i32 0, i32 0
  call void @_ZN9__gnu_cxx17__normal_iteratorIPKN4Luau10HotCommentESt6vectorIS2_SaIS2_EEEC2ERKS4_(ptr noundef nonnull align 8 dereferenceable(8) %2, ptr noundef nonnull align 8 dereferenceable(8) %6) #9
  %7 = getelementptr inbounds nuw %"class.__gnu_cxx::__normal_iterator", ptr %2, i32 0, i32 0
  %8 = load ptr, ptr %7, align 8
  ret ptr %8
}

; Function Attrs: mustprogress uwtable
define dso_local noundef i64 @_ZN4Luau11LintWarning9parseMaskERKSt6vectorINS_10HotCommentESaIS2_EE(ptr noundef nonnull align 8 dereferenceable(24) %0) #4 align 2 {
  %2 = alloca i64, align 8
  %3 = alloca ptr, align 8
  %4 = alloca i64, align 8
  %5 = alloca ptr, align 8
  %6 = alloca %"class.__gnu_cxx::__normal_iterator", align 8
  %7 = alloca %"class.__gnu_cxx::__normal_iterator", align 8
  %8 = alloca i32, align 4
  %9 = alloca ptr, align 8
  %10 = alloca i64, align 8
  %11 = alloca i32, align 4
  store ptr %0, ptr %3, align 8, !tbaa !20
  call void @llvm.lifetime.start.p0(i64 8, ptr %4) #9
  store i64 0, ptr %4, align 8, !tbaa !22
  call void @llvm.lifetime.start.p0(i64 8, ptr %5) #9
  %12 = load ptr, ptr %3, align 8, !tbaa !20
  store ptr %12, ptr %5, align 8, !tbaa !20
  call void @llvm.lifetime.start.p0(i64 8, ptr %6) #9
  %13 = load ptr, ptr %5, align 8, !tbaa !20
  %14 = call ptr @_ZNKSt6vectorIN4Luau10HotCommentESaIS1_EE5beginEv(ptr noundef nonnull align 8 dereferenceable(24) %13) #9
  %15 = getelementptr inbounds nuw %"class.__gnu_cxx::__normal_iterator", ptr %6, i32 0, i32 0
  store ptr %14, ptr %15, align 8
  call void @llvm.lifetime.start.p0(i64 8, ptr %7) #9
  %16 = load ptr, ptr %5, align 8, !tbaa !20
  %17 = call ptr @_ZNKSt6vectorIN4Luau10HotCommentESaIS1_EE3endEv(ptr noundef nonnull align 8 dereferenceable(24) %16) #9
  %18 = getelementptr inbounds nuw %"class.__gnu_cxx::__normal_iterator", ptr %7, i32 0, i32 0
  store ptr %17, ptr %18, align 8
  br label %19

19:                                               ; preds = %68, %1
  %20 = call noundef zeroext i1 @_ZN9__gnu_cxxneIPKN4Luau10HotCommentESt6vectorIS2_SaIS2_EEEEbRKNS_17__normal_iteratorIT_T0_EESD_(ptr noundef nonnull align 8 dereferenceable(8) %6, ptr noundef nonnull align 8 dereferenceable(8) %7) #9
  br i1 %20, label %22, label %21

21:                                               ; preds = %19
  store i32 2, ptr %8, align 4
  br label %70

22:                                               ; preds = %19
  call void @llvm.lifetime.start.p0(i64 8, ptr %9) #9
  %23 = call noundef nonnull align 8 dereferenceable(56) ptr @_ZNK9__gnu_cxx17__normal_iteratorIPKN4Luau10HotCommentESt6vectorIS2_SaIS2_EEEdeEv(ptr noundef nonnull align 8 dereferenceable(8) %6) #9
  store ptr %23, ptr %9, align 8, !tbaa !23
  %24 = load ptr, ptr %9, align 8, !tbaa !23
  %25 = getelementptr inbounds nuw %"struct.Luau::HotComment", ptr %24, i32 0, i32 0
  %26 = load i8, ptr %25, align 8, !tbaa !25, !range !32, !noundef !33
  %27 = trunc i8 %26 to i1
  br i1 %27, label %29, label %28

28:                                               ; preds = %22
  store i32 3, ptr %8, align 4
  br label %65

29:                                               ; preds = %22
  %30 = load ptr, ptr %9, align 8, !tbaa !23
  %31 = getelementptr inbounds nuw %"struct.Luau::HotComment", ptr %30, i32 0, i32 2
  %32 = call noundef i32 @_ZNKSt7__cxx1112basic_stringIcSt11char_traitsIcESaIcEE7compareEmmPKc(ptr noundef nonnull align 8 dereferenceable(32) %31, i64 noundef 0, i64 noundef 6, ptr noundef @.str)
  %33 = icmp ne i32 %32, 0
  br i1 %33, label %34, label %35

34:                                               ; preds = %29
  store i32 3, ptr %8, align 4
  br label %65

35:                                               ; preds = %29
  call void @llvm.lifetime.start.p0(i64 8, ptr %10) #9
  %36 = load ptr, ptr %9, align 8, !tbaa !23
  %37 = getelementptr inbounds nuw %"struct.Luau::HotComment", ptr %36, i32 0, i32 2
  %38 = call noundef i64 @_ZNKSt7__cxx1112basic_stringIcSt11char_traitsIcESaIcEE17find_first_not_ofEPKcm(ptr noundef nonnull align 8 dereferenceable(32) %37, ptr noundef @.str.56, i64 noundef 6) #9
  store i64 %38, ptr %10, align 8, !tbaa !22
  %39 = load i64, ptr %10, align 8, !tbaa !22
  %40 = icmp eq i64 %39, -1
  br i1 %40, label %41, label %42

41:                                               ; preds = %35
  store i64 -1, ptr %2, align 8
  store i32 1, ptr %8, align 4
  br label %62

42:                                               ; preds = %35
  %43 = load i64, ptr %10, align 8, !tbaa !22
  %44 = icmp eq i64 %43, 6
  br i1 %44, label %45, label %46

45:                                               ; preds = %42
  store i32 3, ptr %8, align 4
  br label %62

46:                                               ; preds = %42
  call void @llvm.lifetime.start.p0(i64 4, ptr %11) #9
  %47 = load ptr, ptr %9, align 8, !tbaa !23
  %48 = getelementptr inbounds nuw %"struct.Luau::HotComment", ptr %47, i32 0, i32 2
  %49 = call noundef ptr @_ZNKSt7__cxx1112basic_stringIcSt11char_traitsIcESaIcEE5c_strEv(ptr noundef nonnull align 8 dereferenceable(32) %48) #9
  %50 = load i64, ptr %10, align 8, !tbaa !22
  %51 = getelementptr inbounds nuw i8, ptr %49, i64 %50
  %52 = call noundef i32 @_ZN4Luau11LintWarning9parseNameEPKc(ptr noundef %51)
  store i32 %52, ptr %11, align 4, !tbaa !14
  %53 = load i32, ptr %11, align 4, !tbaa !14
  %54 = icmp ne i32 %53, 0
  br i1 %54, label %55, label %61

55:                                               ; preds = %46
  %56 = load i32, ptr %11, align 4, !tbaa !14
  %57 = zext i32 %56 to i64
  %58 = shl i64 1, %57
  %59 = load i64, ptr %4, align 8, !tbaa !22
  %60 = or i64 %59, %58
  store i64 %60, ptr %4, align 8, !tbaa !22
  br label %61

61:                                               ; preds = %55, %46
  call void @llvm.lifetime.end.p0(i64 4, ptr %11) #9
  store i32 0, ptr %8, align 4
  br label %62

62:                                               ; preds = %61, %45, %41
  call void @llvm.lifetime.end.p0(i64 8, ptr %10) #9
  %63 = load i32, ptr %8, align 4
  switch i32 %63, label %65 [
    i32 0, label %64
  ]

64:                                               ; preds = %62
  store i32 0, ptr %8, align 4
  br label %65

65:                                               ; preds = %64, %62, %34, %28
  call void @llvm.lifetime.end.p0(i64 8, ptr %9) #9
  %66 = load i32, ptr %8, align 4
  switch i32 %66, label %70 [
    i32 0, label %67
    i32 3, label %68
  ]

67:                                               ; preds = %65
  br label %68

68:                                               ; preds = %67, %65
  %69 = call noundef nonnull align 8 dereferenceable(8) ptr @_ZN9__gnu_cxx17__normal_iteratorIPKN4Luau10HotCommentESt6vectorIS2_SaIS2_EEEppEv(ptr noundef nonnull align 8 dereferenceable(8) %6) #9
  br label %19

70:                                               ; preds = %65, %21
  call void @llvm.lifetime.end.p0(i64 8, ptr %7) #9
  call void @llvm.lifetime.end.p0(i64 8, ptr %6) #9
  call void @llvm.lifetime.end.p0(i64 8, ptr %5) #9
  %71 = load i32, ptr %8, align 4
  switch i32 %71, label %74 [
    i32 2, label %72
  ]

72:                                               ; preds = %70
  %73 = load i64, ptr %4, align 8, !tbaa !22
  store i64 %73, ptr %2, align 8
  store i32 1, ptr %8, align 4
  br label %74

74:                                               ; preds = %72, %70
  call void @llvm.lifetime.end.p0(i64 8, ptr %4) #9
  %75 = load i64, ptr %2, align 8
  ret i64 %75
}