; Function Attrs: mustprogress uwtable
define dso_local noundef i64 @_ZN4Luau11LintWarning9parseMaskERKSt6vectorINS_10HotCommentESaIS2_EE(ptr noundef nonnull readonly align 8 captures(none) dereferenceable(24) %0) local_unnamed_addr #6 align 2 personality ptr @__gxx_personality_v0 {
  %2 = load ptr, ptr %0, align 8, !tbaa !16
  %3 = getelementptr inbounds nuw i8, ptr %0, i64 8
  %4 = load ptr, ptr %3, align 8, !tbaa !16
  %.not3840 = icmp eq ptr %2, %4
  br i1 %.not3840, label %._crit_edge, label %.lr.ph

.lr.ph:                                           ; preds = %1, %24
  %.01842 = phi i64 [ %.220.ph, %24 ], [ 0, %1 ]
  %.sroa.029.041 = phi ptr [ %25, %24 ], [ %2, %1 ]
  %5 = load i8, ptr %.sroa.029.041, align 8, !tbaa !18, !range !25, !noundef !26
  %6 = trunc nuw i8 %5 to i1
  br i1 %6, label %7, label %24

7:                                                ; preds = %.lr.ph
  %8 = getelementptr inbounds nuw i8, ptr %.sroa.029.041, i64 24
  %9 = tail call noundef i32 @_ZNKSt7__cxx1112basic_stringIcSt11char_traitsIcESaIcEE7compareEmmPKc(ptr noundef nonnull align 8 dereferenceable(32) %8, i64 noundef 0, i64 noundef 6, ptr noundef nonnull @.str)
  %.not = icmp eq i32 %9, 0
  br i1 %.not, label %10, label %24

10:                                               ; preds = %7
  %11 = tail call noundef i64 @_ZNKSt7__cxx1112basic_stringIcSt11char_traitsIcESaIcEE17find_first_not_ofEPKcmm(ptr noundef nonnull align 8 dereferenceable(32) %8, ptr noundef nonnull @.str.56, i64 noundef 6, i64 noundef 2) #10
  switch i64 %11, label %12 [
    i64 -1, label %._crit_edge
    i64 6, label %24
  ]

12:                                               ; preds = %10
  %13 = load ptr, ptr %8, align 8, !tbaa !27
  %14 = getelementptr inbounds nuw i8, ptr %13, i64 %11
  br label %15

15:                                               ; preds = %20, %12
  %indvars.iv.i = phi i64 [ 0, %12 ], [ %indvars.iv.next.i, %20 ]
  %16 = getelementptr inbounds nuw [30 x ptr], ptr @_ZN4LuauL13kWarningNamesE, i64 0, i64 %indvars.iv.i
  %17 = load ptr, ptr %16, align 8, !tbaa !11
  %18 = tail call i32 @strcmp(ptr noundef nonnull readonly dereferenceable(1) %14, ptr noundef nonnull dereferenceable(1) %17) #9
  %19 = icmp eq i32 %18, 0
  br i1 %19, label %_ZN4Luau11LintWarning9parseNameEPKc.exit, label %20

20:                                               ; preds = %15
  %indvars.iv.next.i = add nuw nsw i64 %indvars.iv.i, 1
  %exitcond.i = icmp eq i64 %indvars.iv.next.i, 30
  br i1 %exitcond.i, label %_ZN4Luau11LintWarning9parseNameEPKc.exit.thread, label %15, !llvm.loop !14

_ZN4Luau11LintWarning9parseNameEPKc.exit:         ; preds = %15
  %.not28 = icmp eq i64 %indvars.iv.i, 0
  %21 = and i64 %indvars.iv.i, 4294967295
  %22 = shl nuw i64 1, %21
  %23 = or i64 %22, %.01842
  br i1 %.not28, label %_ZN4Luau11LintWarning9parseNameEPKc.exit.thread, label %24

_ZN4Luau11LintWarning9parseNameEPKc.exit.thread:  ; preds = %20, %_ZN4Luau11LintWarning9parseNameEPKc.exit
  br label %24

24:                                               ; preds = %10, %.lr.ph, %7, %_ZN4Luau11LintWarning9parseNameEPKc.exit, %_ZN4Luau11LintWarning9parseNameEPKc.exit.thread
  %.220.ph = phi i64 [ %23, %_ZN4Luau11LintWarning9parseNameEPKc.exit ], [ %.01842, %_ZN4Luau11LintWarning9parseNameEPKc.exit.thread ], [ %.01842, %7 ], [ %.01842, %.lr.ph ], [ %.01842, %10 ]
  %25 = getelementptr inbounds nuw i8, ptr %.sroa.029.041, i64 56
  %.not38 = icmp eq ptr %25, %4
  br i1 %.not38, label %._crit_edge, label %.lr.ph

._crit_edge:                                      ; preds = %24, %10, %1
  %spec.select = phi i64 [ 0, %1 ], [ %11, %10 ], [ %.220.ph, %24 ]
  ret i64 %spec.select
}